(i__main__
admin
p0
(dp1
S'pword'
p2
S'00000'
p3
sS'name'
p4
S'ADMIN STAFF 1'
p5
sS'a_id'
p6
S'1'
p7
sb.(i__main__
admin
p0
(dp1
S'pword'
p2
S'00000'
p3
sS'name'
p4
S'ADMIN STAFF 2'
p5
sS'a_id'
p6
S'2'
p7
sb.(i__main__
admin
p0
(dp1
S'pword'
p2
S'00000'
p3
sS'name'
p4
S'ADMIN STAFF 3'
p5
sS'a_id'
p6
S'3'
p7
sb.