(i__main__
business_seating
p0
(dp1
S's_id'
p2
S'AK1'
p3
sS's_business'
p4
I20
sS's_matrix_business'
p5
(lp6
(lp7
S'-'
p8
ag8
ag8
ag8
aa(lp9
g8
ag8
ag8
ag8
aa(lp10
g8
ag8
ag8
ag8
aa(lp11
g8
ag8
ag8
ag8
aa(lp12
g8
aS'x'
p13
ag8
ag8
aasb.