(i__main__
eco_seating
p0
(dp1
S's_eco'
p2
I30
sS's_id'
p3
S'AK1'
p4
sS's_matrix_eco'
p5
(lp6
(lp7
S'-'
p8
ag8
ag8
ag8
ag8
ag8
aa(lp9
g8
ag8
ag8
ag8
ag8
ag8
aa(lp10
g8
ag8
ag8
ag8
ag8
aS'x'
p11
aa(lp12
g8
ag8
ag8
ag8
ag8
ag8
aa(lp13
g8
ag8
ag8
ag8
ag8
ag8
aasb.